target datalayout = "e-m:e-p270:32:32-p271:32:32-p272:64:64-i64:64-i128:128-f80:128-n8:16:32:64-S128"
target triple = "x86_64-pc-linux-gnu"

%"struct.std::__1::once_flag" = type { i64 }
%class.anon.61 = type { ptr }
%"class.std::__1::locale::id" = type <{ %"struct.std::__1::once_flag", i32, [4 x i8] }>
%"class.std::__1::tuple" = type { %"struct.std::__1::__tuple_impl" }
%"struct.std::__1::__tuple_impl" = type { %"class.std::__1::__tuple_leaf" }
%"class.std::__1::__tuple_leaf" = type { ptr }
%"class.std::__1::__call_once_param" = type { ptr }

@_ZNSt3__16locale2id9__next_idE = dso_local global i32 0, align 4

; Function Attrs: inlinehint mustprogress nounwind uwtable
define internal noundef i32 @_ZNSt3__112_GLOBAL__N_119__libcpp_atomic_addB8ne210000IiiEET_PS2_T0_i(ptr noundef %0, i32 noundef %1, i32 noundef %2) #4 {
  %4 = alloca ptr, align 8
  %5 = alloca i32, align 4
  %6 = alloca i32, align 4
  %7 = alloca i32, align 4
  %8 = alloca i32, align 4
  store ptr %0, ptr %4, align 8, !tbaa !33
  store i32 %1, ptr %5, align 4, !tbaa !41
  store i32 %2, ptr %6, align 4, !tbaa !41
  %9 = load ptr, ptr %4, align 8, !tbaa !33
  %10 = load i32, ptr %6, align 4, !tbaa !41
  %11 = load i32, ptr %5, align 4, !tbaa !41
  store i32 %11, ptr %7, align 4, !tbaa !41
  switch i32 %10, label %12 [
    i32 1, label %16
    i32 2, label %16
    i32 3, label %20
    i32 4, label %24
    i32 5, label %28
  ]

12:                                               ; preds = %3
  %13 = load i32, ptr %7, align 4
  %14 = atomicrmw add ptr %9, i32 %13 monotonic, align 4
  %15 = add i32 %14, %13
  store i32 %15, ptr %8, align 4
  br label %32

16:                                               ; preds = %3, %3
  %17 = load i32, ptr %7, align 4
  %18 = atomicrmw add ptr %9, i32 %17 acquire, align 4
  %19 = add i32 %18, %17
  store i32 %19, ptr %8, align 4
  br label %32

20:                                               ; preds = %3
  %21 = load i32, ptr %7, align 4
  %22 = atomicrmw add ptr %9, i32 %21 release, align 4
  %23 = add i32 %22, %21
  store i32 %23, ptr %8, align 4
  br label %32

24:                                               ; preds = %3
  %25 = load i32, ptr %7, align 4
  %26 = atomicrmw add ptr %9, i32 %25 acq_rel, align 4
  %27 = add i32 %26, %25
  store i32 %27, ptr %8, align 4
  br label %32

28:                                               ; preds = %3
  %29 = load i32, ptr %7, align 4
  %30 = atomicrmw add ptr %9, i32 %29 seq_cst, align 4
  %31 = add i32 %30, %29
  store i32 %31, ptr %8, align 4
  br label %32

32:                                               ; preds = %28, %24, %20, %16, %12
  %33 = load i32, ptr %8, align 4, !tbaa !41
  ret i32 %33
}

; Function Attrs: inlinehint mustprogress uwtable
define internal void @"_ZZNSt3__16locale2id5__getEvENK3$_0clEv"(ptr noundef nonnull align 8 dereferenceable(8) %0) #6 align 2 {
  %2 = alloca ptr, align 8
  store ptr %0, ptr %2, align 8, !tbaa !55
  %3 = load ptr, ptr %2, align 8
  %4 = getelementptr inbounds nuw %class.anon.61, ptr %3, i32 0, i32 0
  %5 = load ptr, ptr %4, align 8, !tbaa !437
  %6 = call noundef i32 @_ZNSt3__112_GLOBAL__N_119__libcpp_atomic_addB8ne210000IiiEET_PS2_T0_i(ptr noundef @_ZNSt3__16locale2id9__next_idE, i32 noundef 1, i32 noundef 5)
  %7 = getelementptr inbounds nuw %"class.std::__1::locale::id", ptr %5, i32 0, i32 1
  store i32 %6, ptr %7, align 8, !tbaa !439
  ret void
}

; Function Attrs: mustprogress nounwind uwtable
define internal noundef nonnull align 8 dereferenceable(8) ptr @"_ZNSt3__112__tuple_leafILm0EOZNS_6locale2id5__getEvE3$_0Lb0EE3getB8ne210000Ev"(ptr noundef nonnull align 8 dereferenceable(8) %0) #0 align 2 {
  %2 = alloca ptr, align 8
  store ptr %0, ptr %2, align 8, !tbaa !895
  %3 = load ptr, ptr %2, align 8
  %4 = getelementptr inbounds nuw %"class.std::__1::__tuple_leaf", ptr %3, i32 0, i32 0
  %5 = load ptr, ptr %4, align 8, !tbaa !899
  ret ptr %5
}

; Function Attrs: inlinehint mustprogress uwtable
define internal void @"_ZNSt3__18__invokeB8ne210000IZNS_6locale2id5__getEvE3$_0JEEEDTclclsr3stdE7declvalIT_EEspclsr3stdE7declvalIT0_EEEEOS4_DpOS5_"(ptr noundef nonnull align 8 dereferenceable(8) %0) #6 {
  %2 = alloca ptr, align 8
  store ptr %0, ptr %2, align 8, !tbaa !55
  %3 = load ptr, ptr %2, align 8, !tbaa !55
  call void @"_ZZNSt3__16locale2id5__getEvENK3$_0clEv"(ptr noundef nonnull align 8 dereferenceable(8) %3)
  ret void
}

; Function Attrs: inlinehint mustprogress nounwind uwtable
define internal noundef nonnull align 8 dereferenceable(8) ptr @"_ZNSt3__13getB8ne210000ILm0EJOZNS_6locale2id5__getEvE3$_0EEEONS_13tuple_elementIXT_ENS_5tupleIJDpT0_EEEE4typeEOS9_"(ptr noundef nonnull align 8 dereferenceable(8) %0) #4 {
  %2 = alloca ptr, align 8
  store ptr %0, ptr %2, align 8, !tbaa !889
  %3 = load ptr, ptr %2, align 8, !tbaa !889
  %4 = getelementptr inbounds nuw %"class.std::__1::tuple", ptr %3, i32 0, i32 0
  %5 = call noundef nonnull align 8 dereferenceable(8) ptr @"_ZNSt3__112__tuple_leafILm0EOZNS_6locale2id5__getEvE3$_0Lb0EE3getB8ne210000Ev"(ptr noundef nonnull align 8 dereferenceable(8) %4) #13
  ret ptr %5
}

; Function Attrs: mustprogress uwtable
define internal void @"_ZNSt3__117__call_once_paramINS_5tupleIJOZNS_6locale2id5__getEvE3$_0EEEE9__executeB8ne210000ITpTnmJEEEvNS_15__tuple_indicesIJXspT_EEEE"(ptr noundef nonnull align 8 dereferenceable(8) %0) #2 align 2 {
  %2 = alloca ptr, align 8
  store ptr %0, ptr %2, align 8, !tbaa !891
  %3 = load ptr, ptr %2, align 8
  %4 = getelementptr inbounds nuw %"class.std::__1::__call_once_param", ptr %3, i32 0, i32 0
  %5 = load ptr, ptr %4, align 8, !tbaa !897
  %6 = call noundef nonnull align 8 dereferenceable(8) ptr @"_ZNSt3__13getB8ne210000ILm0EJOZNS_6locale2id5__getEvE3$_0EEEONS_13tuple_elementIXT_ENS_5tupleIJDpT0_EEEE4typeEOS9_"(ptr noundef nonnull align 8 dereferenceable(8) %5) #13
  call void @"_ZNSt3__18__invokeB8ne210000IZNS_6locale2id5__getEvE3$_0JEEEDTclclsr3stdE7declvalIT_EEspclsr3stdE7declvalIT0_EEEEOS4_DpOS5_"(ptr noundef nonnull align 8 dereferenceable(8) %6)
  ret void
}

; Function Attrs: mustprogress uwtable
define internal void @"_ZNSt3__117__call_once_paramINS_5tupleIJOZNS_6locale2id5__getEvE3$_0EEEEclB8ne210000Ev"(ptr noundef nonnull align 8 dereferenceable(8) %0) #2 align 2 {
  %2 = alloca ptr, align 8
  store ptr %0, ptr %2, align 8, !tbaa !891
  %3 = load ptr, ptr %2, align 8
  call void @"_ZNSt3__117__call_once_paramINS_5tupleIJOZNS_6locale2id5__getEvE3$_0EEEE9__executeB8ne210000ITpTnmJEEEvNS_15__tuple_indicesIJXspT_EEEE"(ptr noundef nonnull align 8 dereferenceable(8) %3)
  ret void
}

; Function Attrs: mustprogress uwtable
define internal void @"_ZNSt3__117__call_once_proxyB8ne210000INS_5tupleIJOZNS_6locale2id5__getEvE3$_0EEEEEvPv"(ptr noundef %0) #2 {
  %2 = alloca ptr, align 8
  %3 = alloca ptr, align 8
  store ptr %0, ptr %2, align 8, !tbaa !55
  call void @llvm.lifetime.start.p0(i64 8, ptr %3) #13
  %4 = load ptr, ptr %2, align 8, !tbaa !55
  store ptr %4, ptr %3, align 8, !tbaa !891
  %5 = load ptr, ptr %3, align 8, !tbaa !891
  call void @"_ZNSt3__117__call_once_paramINS_5tupleIJOZNS_6locale2id5__getEvE3$_0EEEEclB8ne210000Ev"(ptr noundef nonnull align 8 dereferenceable(8) %5)
  call void @llvm.lifetime.end.p0(i64 8, ptr %3) #13
  ret void
}