; Function Attrs: mustprogress nofree norecurse nounwind willreturn memory(readwrite, inaccessiblemem: none) uwtable
define internal void @"_ZNSt3__117__call_once_proxyB8ne210000INS_5tupleIJOZNS_6locale2id5__getEvE3$_0EEEEEvPv"(ptr noundef readonly captures(none) %0) #22 {
  %.val = load ptr, ptr %0, align 8, !tbaa !576
  %.val.val = load ptr, ptr %.val, align 8, !tbaa !578
  %.val.val.val = load ptr, ptr %.val.val, align 8, !tbaa !31
  %2 = atomicrmw add ptr @_ZNSt3__16locale2id9__next_idE, i32 1 seq_cst, align 4
  %3 = add i32 %2, 1
  %4 = getelementptr inbounds nuw i8, ptr %.val.val.val, i64 8
  store i32 %3, ptr %4, align 8, !tbaa !37
  ret void
}